; Function Attrs: mustprogress nounwind uwtable
define noundef zeroext i1 @_ZN8facebook5velox6common9Tokenizer8tryMatchEc(ptr noundef nonnull align 8 dereferenceable(72) %this, i8 noundef signext %expected) local_unnamed_addr #3 align 2 {
entry:
  %index_.i = getelementptr inbounds i8, ptr %this, i64 48
  %0 = load i32, ptr %index_.i, align 8
  %conv.i = sext i32 %0 to i64
  %call.i = tail call noundef i64 @_ZNKSt7__cxx1112basic_stringIcSt11char_traitsIcESaIcEE6lengthEv(ptr noundef nonnull align 8 dereferenceable(32) %this) #20
  %cmp.i = icmp ugt i64 %call.i, %conv.i
  br i1 %cmp.i, label %lor.lhs.false, label %return

lor.lhs.false:                                    ; preds = %entry
  %1 = load i32, ptr %index_.i, align 8
  %conv.i2 = sext i32 %1 to i64
  %call.i3 = tail call noundef nonnull align 1 dereferenceable(1) ptr @_ZNKSt7__cxx1112basic_stringIcSt11char_traitsIcESaIcEEixEm(ptr noundef nonnull align 8 dereferenceable(32) %this, i64 noundef %conv.i2) #20
  %2 = load i8, ptr %call.i3, align 1
  %cmp.not = icmp eq i8 %2, %expected
  br i1 %cmp.not, label %if.end, label %return

if.end:                                           ; preds = %lor.lhs.false
  %3 = load i32, ptr %index_.i, align 8
  %inc = add nsw i32 %3, 1
  store i32 %inc, ptr %index_.i, align 8
  br label %return

return:                                           ; preds = %entry, %lor.lhs.false, %if.end
  %retval.0 = phi i1 [ true, %if.end ], [ false, %lor.lhs.false ], [ false, %entry ]
  ret i1 %retval.0
}